target datalayout = "e-m:e-p270:32:32-p271:32:32-p272:64:64-i64:64-i128:128-f80:128-n8:16:32:64-S128"
target triple = "x86_64-pc-linux-gnu"

%struct.tng_trajectory = type { ptr, ptr, i64, ptr, ptr, ptr, ptr, ptr, ptr, i8, i8, ptr, ptr, ptr, ptr, ptr, ptr, ptr, ptr, ptr, i64, i64, i8, i64, i64, i64, double, i64, ptr, ptr, i64, i64, i64, i64, i64, %struct.tng_trajectory_frame_set, i64, i64, i64, i32, ptr, i32, ptr, ptr, ptr, double }
%struct.tng_trajectory_frame_set = type { i64, ptr, i64, i64, i64, i64, ptr, i64, i64, i64, i64, i64, i64, i64, double, i32, ptr, i32, ptr }
%struct.tng_molecule = type { i64, i64, i64, i64, i64, i64, ptr, ptr, ptr, ptr, ptr }

; Function Attrs: nounwind uwtable
define i32 @tng_molecule_cnt_list_get(ptr noundef %0, ptr noundef %1) #0 {
  %3 = alloca i32, align 4
  %4 = alloca ptr, align 8
  %5 = alloca ptr, align 8
  store ptr %0, ptr %4, align 8, !tbaa !3
  store ptr %1, ptr %5, align 8, !tbaa !108
  %6 = load ptr, ptr %4, align 8, !tbaa !3
  %7 = getelementptr inbounds nuw %struct.tng_trajectory, ptr %6, i32 0, i32 22
  %8 = load i8, ptr %7, align 8, !tbaa !64
  %9 = icmp ne i8 %8, 0
  br i1 %9, label %10, label %16

10:                                               ; preds = %2
  %11 = load ptr, ptr %4, align 8, !tbaa !3
  %12 = getelementptr inbounds nuw %struct.tng_trajectory, ptr %11, i32 0, i32 35
  %13 = getelementptr inbounds nuw %struct.tng_trajectory_frame_set, ptr %12, i32 0, i32 6
  %14 = load ptr, ptr %13, align 8, !tbaa !66
  %15 = load ptr, ptr %5, align 8, !tbaa !108
  store ptr %14, ptr %15, align 8, !tbaa !47
  br label %21

16:                                               ; preds = %2
  %17 = load ptr, ptr %4, align 8, !tbaa !3
  %18 = getelementptr inbounds nuw %struct.tng_trajectory, ptr %17, i32 0, i32 29
  %19 = load ptr, ptr %18, align 8, !tbaa !46
  %20 = load ptr, ptr %5, align 8, !tbaa !108
  store ptr %19, ptr %20, align 8, !tbaa !47
  br label %21

21:                                               ; preds = %16, %10
  %22 = load ptr, ptr %5, align 8, !tbaa !108
  %23 = load ptr, ptr %22, align 8, !tbaa !47
  %24 = icmp eq ptr %23, null
  br i1 %24, label %25, label %26

25:                                               ; preds = %21
  store i32 1, ptr %3, align 4
  br label %27

26:                                               ; preds = %21
  store i32 0, ptr %3, align 4
  br label %27

27:                                               ; preds = %26, %25
  %28 = load i32, ptr %3, align 4
  ret i32 %28
}

; Function Attrs: nounwind uwtable
define i32 @tng_molecule_id_of_particle_nr_get(ptr noundef %0, i64 noundef %1, ptr noundef %2) #0 {
  %4 = alloca i32, align 4
  %5 = alloca ptr, align 8
  %6 = alloca i64, align 8
  %7 = alloca ptr, align 8
  %8 = alloca i64, align 8
  %9 = alloca i64, align 8
  %10 = alloca ptr, align 8
  %11 = alloca ptr, align 8
  %12 = alloca i32, align 4
  %13 = alloca i32, align 4
  store ptr %0, ptr %5, align 8, !tbaa !3
  store i64 %1, ptr %6, align 8, !tbaa !26
  store ptr %2, ptr %7, align 8, !tbaa !47
  call void @llvm.lifetime.start.p0(i64 8, ptr %8) #11
  store i64 0, ptr %8, align 8, !tbaa !26
  call void @llvm.lifetime.start.p0(i64 8, ptr %9) #11
  call void @llvm.lifetime.start.p0(i64 8, ptr %10) #11
  store ptr null, ptr %10, align 8, !tbaa !47
  call void @llvm.lifetime.start.p0(i64 8, ptr %11) #11
  call void @llvm.lifetime.start.p0(i64 4, ptr %12) #11
  store i32 0, ptr %12, align 4, !tbaa !20
  %14 = load ptr, ptr %5, align 8, !tbaa !3
  %15 = call i32 @tng_molecule_cnt_list_get(ptr noundef %14, ptr noundef %10)
  %16 = load ptr, ptr %10, align 8, !tbaa !47
  %17 = icmp ne ptr %16, null
  br i1 %17, label %19, label %18

18:                                               ; preds = %3
  store i32 1, ptr %4, align 4
  store i32 1, ptr %13, align 4
  br label %69

19:                                               ; preds = %3
  store i64 0, ptr %9, align 8, !tbaa !26
  br label %20

20:                                               ; preds = %57, %19
  %21 = load i64, ptr %9, align 8, !tbaa !26
  %22 = load ptr, ptr %5, align 8, !tbaa !3
  %23 = getelementptr inbounds nuw %struct.tng_trajectory, ptr %22, i32 0, i32 27
  %24 = load i64, ptr %23, align 8, !tbaa !32
  %25 = icmp slt i64 %21, %24
  br i1 %25, label %26, label %60

26:                                               ; preds = %20
  %27 = load ptr, ptr %5, align 8, !tbaa !3
  %28 = getelementptr inbounds nuw %struct.tng_trajectory, ptr %27, i32 0, i32 28
  %29 = load ptr, ptr %28, align 8, !tbaa !40
  %30 = load i64, ptr %9, align 8, !tbaa !26
  %31 = getelementptr inbounds %struct.tng_molecule, ptr %29, i64 %30
  store ptr %31, ptr %11, align 8, !tbaa !45
  %32 = load i64, ptr %8, align 8, !tbaa !26
  %33 = load ptr, ptr %11, align 8, !tbaa !45
  %34 = getelementptr inbounds nuw %struct.tng_molecule, ptr %33, i32 0, i32 4
  %35 = load i64, ptr %34, align 8, !tbaa !54
  %36 = load ptr, ptr %10, align 8, !tbaa !47
  %37 = load i64, ptr %9, align 8, !tbaa !26
  %38 = getelementptr inbounds i64, ptr %36, i64 %37
  %39 = load i64, ptr %38, align 8, !tbaa !26
  %40 = mul nsw i64 %35, %39
  %41 = add nsw i64 %32, %40
  %42 = sub nsw i64 %41, 1
  %43 = load i64, ptr %6, align 8, !tbaa !26
  %44 = icmp slt i64 %42, %43
  br i1 %44, label %45, label %56

45:                                               ; preds = %26
  %46 = load ptr, ptr %11, align 8, !tbaa !45
  %47 = getelementptr inbounds nuw %struct.tng_molecule, ptr %46, i32 0, i32 4
  %48 = load i64, ptr %47, align 8, !tbaa !54
  %49 = load ptr, ptr %10, align 8, !tbaa !47
  %50 = load i64, ptr %9, align 8, !tbaa !26
  %51 = getelementptr inbounds i64, ptr %49, i64 %50
  %52 = load i64, ptr %51, align 8, !tbaa !26
  %53 = mul nsw i64 %48, %52
  %54 = load i64, ptr %8, align 8, !tbaa !26
  %55 = add nsw i64 %54, %53
  store i64 %55, ptr %8, align 8, !tbaa !26
  br label %57

56:                                               ; preds = %26
  store i32 1, ptr %12, align 4, !tbaa !20
  br label %60

57:                                               ; preds = %45
  %58 = load i64, ptr %9, align 8, !tbaa !26
  %59 = add nsw i64 %58, 1
  store i64 %59, ptr %9, align 8, !tbaa !26
  br label %20, !llvm.loop !110

60:                                               ; preds = %56, %20
  %61 = load i32, ptr %12, align 4, !tbaa !20
  %62 = icmp ne i32 %61, 0
  br i1 %62, label %64, label %63

63:                                               ; preds = %60
  store i32 1, ptr %4, align 4
  store i32 1, ptr %13, align 4
  br label %69

64:                                               ; preds = %60
  %65 = load ptr, ptr %11, align 8, !tbaa !45
  %66 = getelementptr inbounds nuw %struct.tng_molecule, ptr %65, i32 0, i32 0
  %67 = load i64, ptr %66, align 8, !tbaa !41
  %68 = load ptr, ptr %7, align 8, !tbaa !47
  store i64 %67, ptr %68, align 8, !tbaa !26
  store i32 0, ptr %4, align 4
  store i32 1, ptr %13, align 4
  br label %69

69:                                               ; preds = %64, %63, %18
  call void @llvm.lifetime.end.p0(i64 4, ptr %12) #11
  call void @llvm.lifetime.end.p0(i64 8, ptr %11) #11
  call void @llvm.lifetime.end.p0(i64 8, ptr %10) #11
  call void @llvm.lifetime.end.p0(i64 8, ptr %9) #11
  call void @llvm.lifetime.end.p0(i64 8, ptr %8) #11
  %70 = load i32, ptr %4, align 4
  ret i32 %70
}