; Function Attrs: nofree norecurse nosync nounwind memory(read, argmem: readwrite, inaccessiblemem: none) uwtable
define range(i32 0, 2) i32 @tng_molecule_id_of_particle_nr_get(ptr noundef readonly captures(none) %0, i64 noundef %1, ptr noundef writeonly captures(none) %2) local_unnamed_addr #13 {
  %4 = getelementptr inbounds nuw i8, ptr %0, i64 168
  %5 = load i8, ptr %4, align 8, !tbaa !47
  %.not.i = icmp eq i8 %5, 0
  %storemerge.in.v.i = select i1 %.not.i, i64 224, i64 320
  %storemerge.in.i = getelementptr inbounds nuw i8, ptr %0, i64 %storemerge.in.v.i
  %storemerge.i = load ptr, ptr %storemerge.in.i, align 8, !tbaa !92
  %6 = icmp eq ptr %storemerge.i, null
  br i1 %6, label %.loopexit, label %.preheader

.preheader:                                       ; preds = %3
  %7 = getelementptr inbounds nuw i8, ptr %0, i64 208
  %8 = load i64, ptr %7, align 8, !tbaa !19
  %.not2226 = icmp sgt i64 %8, 0
  br i1 %.not2226, label %.lr.ph, label %.loopexit

.lr.ph:                                           ; preds = %.preheader
  %9 = getelementptr inbounds nuw i8, ptr %0, i64 216
  %10 = load ptr, ptr %9, align 8, !tbaa !28
  br label %13

11:                                               ; preds = %13
  %12 = add nuw nsw i64 %.01728, 1
  %exitcond.not = icmp eq i64 %12, %8
  br i1 %exitcond.not, label %.loopexit, label %13, !llvm.loop !94

13:                                               ; preds = %.lr.ph, %11
  %.01728 = phi i64 [ 0, %.lr.ph ], [ %12, %11 ]
  %.01827 = phi i64 [ 0, %.lr.ph ], [ %20, %11 ]
  %14 = getelementptr inbounds nuw %struct.tng_molecule, ptr %10, i64 %.01728
  %15 = getelementptr inbounds nuw i8, ptr %14, i64 32
  %16 = load i64, ptr %15, align 8, !tbaa !48
  %17 = getelementptr inbounds nuw i64, ptr %storemerge.i, i64 %.01728
  %18 = load i64, ptr %17, align 8, !tbaa !38
  %19 = mul nsw i64 %18, %16
  %20 = add nsw i64 %19, %.01827
  %.not20 = icmp sgt i64 %20, %1
  br i1 %.not20, label %21, label %11

21:                                               ; preds = %13
  %22 = load i64, ptr %14, align 8, !tbaa !29
  store i64 %22, ptr %2, align 8, !tbaa !38
  br label %.loopexit

.loopexit:                                        ; preds = %11, %.preheader, %3, %21
  %.019 = phi i32 [ 0, %21 ], [ 1, %3 ], [ 1, %.preheader ], [ 1, %11 ]
  ret i32 %.019
}